target datalayout = "e-m:e-p270:32:32-p271:32:32-p272:64:64-i64:64-i128:128-f80:128-n8:16:32:64-S128"
target triple = "x86_64-pc-linux-gnu"

%class.colvarvalue = type { i32, double, %"class.colvarmodule::rvector", %"class.colvarmodule::quaternion", %"class.colvarmodule::vector1d", %"class.std::vector.0", %"class.std::vector.5", %"class.std::vector.5" }
%"class.colvarmodule::rvector" = type { double, double, double }
%"class.colvarmodule::quaternion" = type { double, double, double, double }
%"class.colvarmodule::vector1d" = type { %"class.std::vector" }
%"class.std::vector" = type { %"struct.std::_Vector_base" }
%"struct.std::_Vector_base" = type { %"struct.std::_Vector_base<double, std::allocator<double>>::_Vector_impl" }
%"struct.std::_Vector_base<double, std::allocator<double>>::_Vector_impl" = type { %"struct.std::_Vector_base<double, std::allocator<double>>::_Vector_impl_data" }
%"struct.std::_Vector_base<double, std::allocator<double>>::_Vector_impl_data" = type { ptr, ptr, ptr }
%"class.std::vector.0" = type { %"struct.std::_Vector_base.1" }
%"struct.std::_Vector_base.1" = type { %"struct.std::_Vector_base<colvarvalue::Type, std::allocator<colvarvalue::Type>>::_Vector_impl" }
%"struct.std::_Vector_base<colvarvalue::Type, std::allocator<colvarvalue::Type>>::_Vector_impl" = type { %"struct.std::_Vector_base<colvarvalue::Type, std::allocator<colvarvalue::Type>>::_Vector_impl_data" }
%"struct.std::_Vector_base<colvarvalue::Type, std::allocator<colvarvalue::Type>>::_Vector_impl_data" = type { ptr, ptr, ptr }
%"class.std::vector.5" = type { %"struct.std::_Vector_base.6" }
%"struct.std::_Vector_base.6" = type { %"struct.std::_Vector_base<int, std::allocator<int>>::_Vector_impl" }
%"struct.std::_Vector_base<int, std::allocator<int>>::_Vector_impl" = type { %"struct.std::_Vector_base<int, std::allocator<int>>::_Vector_impl_data" }
%"struct.std::_Vector_base<int, std::allocator<int>>::_Vector_impl_data" = type { ptr, ptr, ptr }

; Function Attrs: mustprogress nounwind uwtable
define linkonce_odr noundef nonnull align 8 dereferenceable(8) ptr @_ZNKSt6vectorIdSaIdEEixEm(ptr noundef nonnull align 8 dereferenceable(24) %0, i64 noundef %1) #2 comdat align 2 {
  %3 = alloca ptr, align 8
  %4 = alloca i64, align 8
  store ptr %0, ptr %3, align 8, !tbaa !51
  store i64 %1, ptr %4, align 8, !tbaa !37
  %5 = load ptr, ptr %3, align 8
  %6 = getelementptr inbounds nuw %"struct.std::_Vector_base", ptr %5, i32 0, i32 0
  %7 = getelementptr inbounds nuw %"struct.std::_Vector_base<double, std::allocator<double>>::_Vector_impl_data", ptr %6, i32 0, i32 0
  %8 = load ptr, ptr %7, align 8, !tbaa !53
  %9 = load i64, ptr %4, align 8, !tbaa !37
  %10 = getelementptr inbounds nuw double, ptr %8, i64 %9
  ret ptr %10
}

; Function Attrs: mustprogress nounwind uwtable
define linkonce_odr noundef i64 @_ZNKSt6vectorIdSaIdEE4sizeEv(ptr noundef nonnull align 8 dereferenceable(24) %0) #2 comdat align 2 {
  %2 = alloca ptr, align 8
  store ptr %0, ptr %2, align 8, !tbaa !51
  %3 = load ptr, ptr %2, align 8
  %4 = getelementptr inbounds nuw %"struct.std::_Vector_base", ptr %3, i32 0, i32 0
  %5 = getelementptr inbounds nuw %"struct.std::_Vector_base<double, std::allocator<double>>::_Vector_impl_data", ptr %4, i32 0, i32 1
  %6 = load ptr, ptr %5, align 8, !tbaa !54
  %7 = getelementptr inbounds nuw %"struct.std::_Vector_base", ptr %3, i32 0, i32 0
  %8 = getelementptr inbounds nuw %"struct.std::_Vector_base<double, std::allocator<double>>::_Vector_impl_data", ptr %7, i32 0, i32 0
  %9 = load ptr, ptr %8, align 8, !tbaa !53
  %10 = ptrtoint ptr %6 to i64
  %11 = ptrtoint ptr %9 to i64
  %12 = sub i64 %10, %11
  %13 = sdiv exact i64 %12, 8
  ret i64 %13
}

; Function Attrs: inlinehint mustprogress nounwind uwtable
define linkonce_odr noundef nonnull align 8 dereferenceable(8) ptr @_ZNK12colvarmodule8vector1dIdEixEm(ptr noundef nonnull align 8 dereferenceable(24) %0, i64 noundef %1) #3 comdat align 2 {
  %3 = alloca ptr, align 8
  %4 = alloca i64, align 8
  store ptr %0, ptr %3, align 8, !tbaa !35
  store i64 %1, ptr %4, align 8, !tbaa !37
  %5 = load ptr, ptr %3, align 8
  %6 = getelementptr inbounds nuw %"class.colvarmodule::vector1d", ptr %5, i32 0, i32 0
  %7 = load i64, ptr %4, align 8, !tbaa !37
  %8 = call noundef nonnull align 8 dereferenceable(8) ptr @_ZNKSt6vectorIdSaIdEEixEm(ptr noundef nonnull align 8 dereferenceable(24) %6, i64 noundef %7) #15
  ret ptr %8
}

; Function Attrs: inlinehint mustprogress nounwind uwtable
define linkonce_odr noundef i64 @_ZNK12colvarmodule8vector1dIdE4sizeEv(ptr noundef nonnull align 8 dereferenceable(24) %0) #3 comdat align 2 {
  %2 = alloca ptr, align 8
  store ptr %0, ptr %2, align 8, !tbaa !35
  %3 = load ptr, ptr %2, align 8
  %4 = getelementptr inbounds nuw %"class.colvarmodule::vector1d", ptr %3, i32 0, i32 0
  %5 = call noundef i64 @_ZNKSt6vectorIdSaIdEE4sizeEv(ptr noundef nonnull align 8 dereferenceable(24) %4) #15
  ret i64 %5
}

; Function Attrs: inlinehint mustprogress nounwind uwtable
define linkonce_odr noundef double @_ZNK12colvarmodule8vector1dIdE5norm2Ev(ptr noundef nonnull align 8 dereferenceable(24) %0) #3 comdat align 2 {
  %2 = alloca ptr, align 8
  %3 = alloca double, align 8
  %4 = alloca i64, align 8
  store ptr %0, ptr %2, align 8, !tbaa !35
  %5 = load ptr, ptr %2, align 8
  call void @llvm.lifetime.start.p0(i64 8, ptr %3) #15
  store double 0.000000e+00, ptr %3, align 8, !tbaa !43
  call void @llvm.lifetime.start.p0(i64 8, ptr %4) #15
  store i64 0, ptr %4, align 8, !tbaa !37
  br label %6

6:                                                ; preds = %19, %1
  %7 = load i64, ptr %4, align 8, !tbaa !37
  %8 = call noundef i64 @_ZNK12colvarmodule8vector1dIdE4sizeEv(ptr noundef nonnull align 8 dereferenceable(24) %5)
  %9 = icmp ult i64 %7, %8
  br i1 %9, label %10, label %22

10:                                               ; preds = %6
  %11 = load i64, ptr %4, align 8, !tbaa !37
  %12 = call noundef nonnull align 8 dereferenceable(8) ptr @_ZNK12colvarmodule8vector1dIdEixEm(ptr noundef nonnull align 8 dereferenceable(24) %5, i64 noundef %11)
  %13 = load double, ptr %12, align 8, !tbaa !43
  %14 = load i64, ptr %4, align 8, !tbaa !37
  %15 = call noundef nonnull align 8 dereferenceable(8) ptr @_ZNK12colvarmodule8vector1dIdEixEm(ptr noundef nonnull align 8 dereferenceable(24) %5, i64 noundef %14)
  %16 = load double, ptr %15, align 8, !tbaa !43
  %17 = load double, ptr %3, align 8, !tbaa !43
  %18 = call double @llvm.fmuladd.f64(double %13, double %16, double %17)
  store double %18, ptr %3, align 8, !tbaa !43
  br label %19

19:                                               ; preds = %10
  %20 = load i64, ptr %4, align 8, !tbaa !37
  %21 = add i64 %20, 1
  store i64 %21, ptr %4, align 8, !tbaa !37
  br label %6, !llvm.loop !181

22:                                               ; preds = %6
  %23 = load double, ptr %3, align 8, !tbaa !43
  call void @llvm.lifetime.end.p0(i64 8, ptr %4) #15
  call void @llvm.lifetime.end.p0(i64 8, ptr %3) #15
  ret double %23
}

; Function Attrs: mustprogress nounwind uwtable
define linkonce_odr noundef i64 @_ZNKSt6vectorIN11colvarvalue4TypeESaIS1_EE4sizeEv(ptr noundef nonnull align 8 dereferenceable(24) %0) #2 comdat align 2 {
  %2 = alloca ptr, align 8
  store ptr %0, ptr %2, align 8, !tbaa !39
  %3 = load ptr, ptr %2, align 8
  %4 = getelementptr inbounds nuw %"struct.std::_Vector_base.1", ptr %3, i32 0, i32 0
  %5 = getelementptr inbounds nuw %"struct.std::_Vector_base<colvarvalue::Type, std::allocator<colvarvalue::Type>>::_Vector_impl_data", ptr %4, i32 0, i32 1
  %6 = load ptr, ptr %5, align 8, !tbaa !93
  %7 = getelementptr inbounds nuw %"struct.std::_Vector_base.1", ptr %3, i32 0, i32 0
  %8 = getelementptr inbounds nuw %"struct.std::_Vector_base<colvarvalue::Type, std::allocator<colvarvalue::Type>>::_Vector_impl_data", ptr %7, i32 0, i32 0
  %9 = load ptr, ptr %8, align 8, !tbaa !92
  %10 = ptrtoint ptr %6 to i64
  %11 = ptrtoint ptr %9 to i64
  %12 = sub i64 %10, %11
  %13 = sdiv exact i64 %12, 4
  ret i64 %13
}

; Function Attrs: inlinehint mustprogress nounwind uwtable
define linkonce_odr noundef double @_ZNK12colvarmodule10quaternion5norm2Ev(ptr noundef nonnull align 8 dereferenceable(32) %0) #3 comdat align 2 {
  %2 = alloca ptr, align 8
  store ptr %0, ptr %2, align 8, !tbaa !33
  %3 = load ptr, ptr %2, align 8
  %4 = getelementptr inbounds nuw %"class.colvarmodule::quaternion", ptr %3, i32 0, i32 0
  %5 = load double, ptr %4, align 8, !tbaa !50
  %6 = getelementptr inbounds nuw %"class.colvarmodule::quaternion", ptr %3, i32 0, i32 0
  %7 = load double, ptr %6, align 8, !tbaa !50
  %8 = getelementptr inbounds nuw %"class.colvarmodule::quaternion", ptr %3, i32 0, i32 1
  %9 = load double, ptr %8, align 8, !tbaa !49
  %10 = getelementptr inbounds nuw %"class.colvarmodule::quaternion", ptr %3, i32 0, i32 1
  %11 = load double, ptr %10, align 8, !tbaa !49
  %12 = fmul double %9, %11
  %13 = call double @llvm.fmuladd.f64(double %5, double %7, double %12)
  %14 = getelementptr inbounds nuw %"class.colvarmodule::quaternion", ptr %3, i32 0, i32 2
  %15 = load double, ptr %14, align 8, !tbaa !48
  %16 = getelementptr inbounds nuw %"class.colvarmodule::quaternion", ptr %3, i32 0, i32 2
  %17 = load double, ptr %16, align 8, !tbaa !48
  %18 = call double @llvm.fmuladd.f64(double %15, double %17, double %13)
  %19 = getelementptr inbounds nuw %"class.colvarmodule::quaternion", ptr %3, i32 0, i32 3
  %20 = load double, ptr %19, align 8, !tbaa !47
  %21 = getelementptr inbounds nuw %"class.colvarmodule::quaternion", ptr %3, i32 0, i32 3
  %22 = load double, ptr %21, align 8, !tbaa !47
  %23 = call double @llvm.fmuladd.f64(double %20, double %22, double %18)
  ret double %23
}

; Function Attrs: inlinehint mustprogress nounwind uwtable
define linkonce_odr noundef double @_ZNK12colvarmodule7rvector5norm2Ev(ptr noundef nonnull align 8 dereferenceable(24) %0) #3 comdat align 2 {
  %2 = alloca ptr, align 8
  store ptr %0, ptr %2, align 8, !tbaa !31
  %3 = load ptr, ptr %2, align 8
  %4 = getelementptr inbounds nuw %"class.colvarmodule::rvector", ptr %3, i32 0, i32 0
  %5 = load double, ptr %4, align 8, !tbaa !46
  %6 = getelementptr inbounds nuw %"class.colvarmodule::rvector", ptr %3, i32 0, i32 0
  %7 = load double, ptr %6, align 8, !tbaa !46
  %8 = getelementptr inbounds nuw %"class.colvarmodule::rvector", ptr %3, i32 0, i32 1
  %9 = load double, ptr %8, align 8, !tbaa !45
  %10 = getelementptr inbounds nuw %"class.colvarmodule::rvector", ptr %3, i32 0, i32 1
  %11 = load double, ptr %10, align 8, !tbaa !45
  %12 = fmul double %9, %11
  %13 = call double @llvm.fmuladd.f64(double %5, double %7, double %12)
  %14 = getelementptr inbounds nuw %"class.colvarmodule::rvector", ptr %3, i32 0, i32 2
  %15 = load double, ptr %14, align 8, !tbaa !44
  %16 = getelementptr inbounds nuw %"class.colvarmodule::rvector", ptr %3, i32 0, i32 2
  %17 = load double, ptr %16, align 8, !tbaa !44
  %18 = call double @llvm.fmuladd.f64(double %15, double %17, double %13)
  ret double %18
}

; Function Attrs: mustprogress uwtable
define noundef double @_ZNK11colvarvalue5norm2Ev(ptr noundef nonnull align 8 dereferenceable(168) %0) #0 align 2 personality ptr @__gxx_personality_v0 {
  %2 = alloca double, align 8
  %3 = alloca ptr, align 8
  %4 = alloca double, align 8
  %5 = alloca i64, align 8
  %6 = alloca %class.colvarvalue, align 8
  %7 = alloca ptr, align 8
  %8 = alloca i32, align 4
  store ptr %0, ptr %3, align 8, !tbaa !4
  %9 = load ptr, ptr %3, align 8
  %10 = getelementptr inbounds nuw %class.colvarvalue, ptr %9, i32 0, i32 0
  %11 = load i32, ptr %10, align 8, !tbaa !9
  switch i32 %11, label %54 [
    i32 1, label %12
    i32 2, label %18
    i32 3, label %18
    i32 4, label %18
    i32 5, label %21
    i32 6, label %21
    i32 7, label %24
    i32 0, label %53
  ]

12:                                               ; preds = %1
  %13 = getelementptr inbounds nuw %class.colvarvalue, ptr %9, i32 0, i32 1
  %14 = load double, ptr %13, align 8, !tbaa !30
  %15 = getelementptr inbounds nuw %class.colvarvalue, ptr %9, i32 0, i32 1
  %16 = load double, ptr %15, align 8, !tbaa !30
  %17 = fmul double %14, %16
  store double %17, ptr %2, align 8
  br label %55

18:                                               ; preds = %1, %1, %1
  %19 = getelementptr inbounds nuw %class.colvarvalue, ptr %9, i32 0, i32 2
  %20 = call noundef double @_ZNK12colvarmodule7rvector5norm2Ev(ptr noundef nonnull align 8 dereferenceable(24) %19)
  store double %20, ptr %2, align 8
  br label %55

21:                                               ; preds = %1, %1
  %22 = getelementptr inbounds nuw %class.colvarvalue, ptr %9, i32 0, i32 3
  %23 = call noundef double @_ZNK12colvarmodule10quaternion5norm2Ev(ptr noundef nonnull align 8 dereferenceable(32) %22)
  store double %23, ptr %2, align 8
  br label %55

24:                                               ; preds = %1
  %25 = getelementptr inbounds nuw %class.colvarvalue, ptr %9, i32 0, i32 5
  %26 = call noundef i64 @_ZNKSt6vectorIN11colvarvalue4TypeESaIS1_EE4sizeEv(ptr noundef nonnull align 8 dereferenceable(24) %25) #15
  %27 = icmp ugt i64 %26, 0
  br i1 %27, label %28, label %50

28:                                               ; preds = %24
  call void @llvm.lifetime.start.p0(i64 8, ptr %4) #15
  store double 0.000000e+00, ptr %4, align 8, !tbaa !43
  call void @llvm.lifetime.start.p0(i64 8, ptr %5) #15
  store i64 0, ptr %5, align 8, !tbaa !37
  br label %29

29:                                               ; preds = %41, %28
  %30 = load i64, ptr %5, align 8, !tbaa !37
  %31 = getelementptr inbounds nuw %class.colvarvalue, ptr %9, i32 0, i32 5
  %32 = call noundef i64 @_ZNKSt6vectorIN11colvarvalue4TypeESaIS1_EE4sizeEv(ptr noundef nonnull align 8 dereferenceable(24) %31) #15
  %33 = icmp ult i64 %30, %32
  br i1 %33, label %34, label %48

34:                                               ; preds = %29
  call void @llvm.lifetime.start.p0(i64 168, ptr %6) #15
  %35 = load i64, ptr %5, align 8, !tbaa !37
  %36 = trunc i64 %35 to i32
  call void @_ZNK11colvarvalue8get_elemEi(ptr dead_on_unwind writable sret(%class.colvarvalue) align 8 %6, ptr noundef nonnull align 8 dereferenceable(168) %9, i32 noundef %36)
  %37 = invoke noundef double @_ZNK11colvarvalue5norm2Ev(ptr noundef nonnull align 8 dereferenceable(168) %6)
          to label %38 unwind label %44

38:                                               ; preds = %34
  %39 = load double, ptr %4, align 8, !tbaa !43
  %40 = fadd double %39, %37
  store double %40, ptr %4, align 8, !tbaa !43
  call void @_ZN11colvarvalueD2Ev(ptr noundef nonnull align 8 dereferenceable(168) %6) #15
  call void @llvm.lifetime.end.p0(i64 168, ptr %6) #15
  br label %41

41:                                               ; preds = %38
  %42 = load i64, ptr %5, align 8, !tbaa !37
  %43 = add i64 %42, 1
  store i64 %43, ptr %5, align 8, !tbaa !37
  br label %29, !llvm.loop !180

44:                                               ; preds = %34
  %45 = landingpad { ptr, i32 }
          cleanup
  %46 = extractvalue { ptr, i32 } %45, 0
  store ptr %46, ptr %7, align 8
  %47 = extractvalue { ptr, i32 } %45, 1
  store i32 %47, ptr %8, align 4
  call void @_ZN11colvarvalueD2Ev(ptr noundef nonnull align 8 dereferenceable(168) %6) #15
  call void @llvm.lifetime.end.p0(i64 168, ptr %6) #15
  call void @llvm.lifetime.end.p0(i64 8, ptr %5) #15
  call void @llvm.lifetime.end.p0(i64 8, ptr %4) #15
  br label %57

48:                                               ; preds = %29
  %49 = load double, ptr %4, align 8, !tbaa !43
  store double %49, ptr %2, align 8
  call void @llvm.lifetime.end.p0(i64 8, ptr %5) #15
  call void @llvm.lifetime.end.p0(i64 8, ptr %4) #15
  br label %55

50:                                               ; preds = %24
  %51 = getelementptr inbounds nuw %class.colvarvalue, ptr %9, i32 0, i32 4
  %52 = call noundef double @_ZNK12colvarmodule8vector1dIdE5norm2Ev(ptr noundef nonnull align 8 dereferenceable(24) %51)
  store double %52, ptr %2, align 8
  br label %55

53:                                               ; preds = %1
  br label %54

54:                                               ; preds = %1, %53
  store double 0.000000e+00, ptr %2, align 8
  br label %55

55:                                               ; preds = %54, %50, %48, %21, %18, %12
  %56 = load double, ptr %2, align 8
  ret double %56

57:                                               ; preds = %44
  %58 = load ptr, ptr %7, align 8
  %59 = load i32, ptr %8, align 4
  %60 = insertvalue { ptr, i32 } poison, ptr %58, 0
  %61 = insertvalue { ptr, i32 } %60, i32 %59, 1
  resume { ptr, i32 } %61
}