; Function Attrs: mustprogress uwtable
define noundef double @_ZNK11colvarvalue5norm2Ev(ptr noundef nonnull align 8 dereferenceable(168) %0) local_unnamed_addr #1 align 2 personality ptr @__gxx_personality_v0 {
  %2 = alloca %class.colvarvalue, align 8
  %3 = load i32, ptr %0, align 8, !tbaa !4
  switch i32 %3, label %_ZNK12colvarmodule8vector1dIdE5norm2Ev.exit [
    i32 1, label %4
    i32 2, label %8
    i32 3, label %8
    i32 4, label %8
    i32 5, label %18
    i32 6, label %18
    i32 7, label %31
  ]

4:                                                ; preds = %1
  %5 = getelementptr inbounds nuw i8, ptr %0, i64 8
  %6 = load double, ptr %5, align 8, !tbaa !39
  %7 = fmul double %6, %6
  br label %_ZNK12colvarmodule8vector1dIdE5norm2Ev.exit

8:                                                ; preds = %1, %1, %1
  %9 = getelementptr inbounds nuw i8, ptr %0, i64 16
  %10 = load double, ptr %9, align 8, !tbaa !63
  %11 = getelementptr inbounds nuw i8, ptr %0, i64 24
  %12 = load double, ptr %11, align 8, !tbaa !64
  %13 = fmul double %12, %12
  %14 = tail call double @llvm.fmuladd.f64(double %10, double %10, double %13)
  %15 = getelementptr inbounds nuw i8, ptr %0, i64 32
  %16 = load double, ptr %15, align 8, !tbaa !65
  %17 = tail call noundef double @llvm.fmuladd.f64(double %16, double %16, double %14)
  br label %_ZNK12colvarmodule8vector1dIdE5norm2Ev.exit

18:                                               ; preds = %1, %1
  %19 = getelementptr inbounds nuw i8, ptr %0, i64 40
  %20 = load double, ptr %19, align 8, !tbaa !66
  %21 = getelementptr inbounds nuw i8, ptr %0, i64 48
  %22 = load double, ptr %21, align 8, !tbaa !67
  %23 = fmul double %22, %22
  %24 = tail call double @llvm.fmuladd.f64(double %20, double %20, double %23)
  %25 = getelementptr inbounds nuw i8, ptr %0, i64 56
  %26 = load double, ptr %25, align 8, !tbaa !68
  %27 = tail call double @llvm.fmuladd.f64(double %26, double %26, double %24)
  %28 = getelementptr inbounds nuw i8, ptr %0, i64 64
  %29 = load double, ptr %28, align 8, !tbaa !69
  %30 = tail call noundef double @llvm.fmuladd.f64(double %29, double %29, double %27)
  br label %_ZNK12colvarmodule8vector1dIdE5norm2Ev.exit

31:                                               ; preds = %1
  %32 = getelementptr inbounds nuw i8, ptr %0, i64 96
  %33 = getelementptr inbounds nuw i8, ptr %0, i64 104
  %34 = load ptr, ptr %33, align 8, !tbaa !42
  %35 = load ptr, ptr %32, align 8, !tbaa !37
  %.not = icmp eq ptr %34, %35
  br i1 %.not, label %86, label %.lr.ph

.lr.ph:                                           ; preds = %31
  %36 = getelementptr inbounds nuw i8, ptr %2, i64 144
  %37 = getelementptr inbounds nuw i8, ptr %2, i64 160
  %38 = getelementptr inbounds nuw i8, ptr %2, i64 120
  %39 = getelementptr inbounds nuw i8, ptr %2, i64 136
  %40 = getelementptr inbounds nuw i8, ptr %2, i64 96
  %41 = getelementptr inbounds nuw i8, ptr %2, i64 112
  %42 = getelementptr inbounds nuw i8, ptr %2, i64 72
  %43 = getelementptr inbounds nuw i8, ptr %2, i64 80
  %44 = getelementptr inbounds nuw i8, ptr %2, i64 88
  br label %45

45:                                               ; preds = %.lr.ph, %_ZN11colvarvalueD2Ev.exit
  %.0813 = phi double [ 0.000000e+00, %.lr.ph ], [ %49, %_ZN11colvarvalueD2Ev.exit ]
  %.0912 = phi i64 [ 0, %.lr.ph ], [ %76, %_ZN11colvarvalueD2Ev.exit ]
  call void @llvm.lifetime.start.p0(i64 168, ptr nonnull %2) #26
  %46 = trunc i64 %.0912 to i32
  call void @_ZNK11colvarvalue8get_elemEi(ptr dead_on_unwind nonnull writable sret(%class.colvarvalue) align 8 %2, ptr noundef nonnull align 8 dereferenceable(168) %0, i32 noundef %46)
  %47 = invoke noundef double @_ZNK11colvarvalue5norm2Ev(ptr noundef nonnull align 8 dereferenceable(168) %2)
          to label %48 unwind label %84

48:                                               ; preds = %45
  %49 = fadd double %.0813, %47
  %50 = load ptr, ptr %36, align 8, !tbaa !35
  %.not.i.i.i.i = icmp eq ptr %50, null
  br i1 %.not.i.i.i.i, label %_ZNSt6vectorIiSaIiEED2Ev.exit.i, label %51

51:                                               ; preds = %48
  %52 = load ptr, ptr %37, align 8, !tbaa !36
  %53 = ptrtoint ptr %52 to i64
  %54 = ptrtoint ptr %50 to i64
  %55 = sub i64 %53, %54
  call void @_ZdlPvm(ptr noundef nonnull %50, i64 noundef %55) #25
  br label %_ZNSt6vectorIiSaIiEED2Ev.exit.i

_ZNSt6vectorIiSaIiEED2Ev.exit.i:                  ; preds = %51, %48
  %56 = load ptr, ptr %38, align 8, !tbaa !35
  %.not.i.i.i1.i = icmp eq ptr %56, null
  br i1 %.not.i.i.i1.i, label %_ZNSt6vectorIiSaIiEED2Ev.exit2.i, label %57

57:                                               ; preds = %_ZNSt6vectorIiSaIiEED2Ev.exit.i
  %58 = load ptr, ptr %39, align 8, !tbaa !36
  %59 = ptrtoint ptr %58 to i64
  %60 = ptrtoint ptr %56 to i64
  %61 = sub i64 %59, %60
  call void @_ZdlPvm(ptr noundef nonnull %56, i64 noundef %61) #25
  br label %_ZNSt6vectorIiSaIiEED2Ev.exit2.i

_ZNSt6vectorIiSaIiEED2Ev.exit2.i:                 ; preds = %57, %_ZNSt6vectorIiSaIiEED2Ev.exit.i
  %62 = load ptr, ptr %40, align 8, !tbaa !37
  %.not.i.i.i3.i = icmp eq ptr %62, null
  br i1 %.not.i.i.i3.i, label %_ZNSt6vectorIN11colvarvalue4TypeESaIS1_EED2Ev.exit.i, label %63

63:                                               ; preds = %_ZNSt6vectorIiSaIiEED2Ev.exit2.i
  %64 = load ptr, ptr %41, align 8, !tbaa !38
  %65 = ptrtoint ptr %64 to i64
  %66 = ptrtoint ptr %62 to i64
  %67 = sub i64 %65, %66
  call void @_ZdlPvm(ptr noundef nonnull %62, i64 noundef %67) #25
  br label %_ZNSt6vectorIN11colvarvalue4TypeESaIS1_EED2Ev.exit.i

_ZNSt6vectorIN11colvarvalue4TypeESaIS1_EED2Ev.exit.i: ; preds = %63, %_ZNSt6vectorIiSaIiEED2Ev.exit2.i
  %68 = load ptr, ptr %42, align 8, !tbaa !29
  %69 = load ptr, ptr %43, align 8, !tbaa !28
  %.not.i.i.i4.i = icmp eq ptr %69, %68
  br i1 %.not.i.i.i4.i, label %_ZNSt6vectorIdSaIdEE5clearEv.exit.i.i, label %70

70:                                               ; preds = %_ZNSt6vectorIN11colvarvalue4TypeESaIS1_EED2Ev.exit.i
  store ptr %68, ptr %43, align 8, !tbaa !28
  br label %_ZNSt6vectorIdSaIdEE5clearEv.exit.i.i

_ZNSt6vectorIdSaIdEE5clearEv.exit.i.i:            ; preds = %70, %_ZNSt6vectorIN11colvarvalue4TypeESaIS1_EED2Ev.exit.i
  %.not.i.i.i.i.i = icmp eq ptr %68, null
  br i1 %.not.i.i.i.i.i, label %_ZN11colvarvalueD2Ev.exit, label %71

71:                                               ; preds = %_ZNSt6vectorIdSaIdEE5clearEv.exit.i.i
  %72 = load ptr, ptr %44, align 8, !tbaa !30
  %73 = ptrtoint ptr %72 to i64
  %74 = ptrtoint ptr %68 to i64
  %75 = sub i64 %73, %74
  call void @_ZdlPvm(ptr noundef nonnull %68, i64 noundef %75) #25
  br label %_ZN11colvarvalueD2Ev.exit

_ZN11colvarvalueD2Ev.exit:                        ; preds = %_ZNSt6vectorIdSaIdEE5clearEv.exit.i.i, %71
  call void @llvm.lifetime.end.p0(i64 168, ptr nonnull %2) #26
  %76 = add nuw i64 %.0912, 1
  %77 = load ptr, ptr %33, align 8, !tbaa !42
  %78 = load ptr, ptr %32, align 8, !tbaa !37
  %79 = ptrtoint ptr %77 to i64
  %80 = ptrtoint ptr %78 to i64
  %81 = sub i64 %79, %80
  %82 = ashr exact i64 %81, 2
  %83 = icmp ult i64 %76, %82
  br i1 %83, label %45, label %_ZNK12colvarmodule8vector1dIdE5norm2Ev.exit, !llvm.loop !173

84:                                               ; preds = %45
  %85 = landingpad { ptr, i32 }
          cleanup
  call void @_ZN11colvarvalueD2Ev(ptr noundef nonnull align 8 dereferenceable(168) %2) #26
  call void @llvm.lifetime.end.p0(i64 168, ptr nonnull %2) #26
  resume { ptr, i32 } %85

86:                                               ; preds = %31
  %87 = getelementptr inbounds nuw i8, ptr %0, i64 72
  %88 = getelementptr inbounds nuw i8, ptr %0, i64 80
  %89 = load ptr, ptr %88, align 8, !tbaa !28
  %90 = load ptr, ptr %87, align 8, !tbaa !29
  %.not.i = icmp eq ptr %89, %90
  br i1 %.not.i, label %_ZNK12colvarmodule8vector1dIdE5norm2Ev.exit, label %.lr.ph.preheader.i

.lr.ph.preheader.i:                               ; preds = %86
  %91 = ptrtoint ptr %89 to i64
  %92 = ptrtoint ptr %90 to i64
  %93 = sub i64 %91, %92
  %94 = ashr exact i64 %93, 3
  %umax.i = tail call i64 @llvm.umax.i64(i64 %94, i64 1)
  br label %.lr.ph.i

.lr.ph.i:                                         ; preds = %.lr.ph.i, %.lr.ph.preheader.i
  %.08.i = phi i64 [ %98, %.lr.ph.i ], [ 0, %.lr.ph.preheader.i ]
  %.067.i = phi double [ %97, %.lr.ph.i ], [ 0.000000e+00, %.lr.ph.preheader.i ]
  %95 = getelementptr inbounds nuw double, ptr %90, i64 %.08.i
  %96 = load double, ptr %95, align 8, !tbaa !31
  %97 = tail call double @llvm.fmuladd.f64(double %96, double %96, double %.067.i)
  %98 = add nuw i64 %.08.i, 1
  %exitcond.not.i = icmp eq i64 %98, %umax.i
  br i1 %exitcond.not.i, label %_ZNK12colvarmodule8vector1dIdE5norm2Ev.exit, label %.lr.ph.i, !llvm.loop !174

_ZNK12colvarmodule8vector1dIdE5norm2Ev.exit:      ; preds = %_ZN11colvarvalueD2Ev.exit, %.lr.ph.i, %86, %1, %18, %8, %4
  %.0 = phi double [ %30, %18 ], [ %17, %8 ], [ %7, %4 ], [ 0.000000e+00, %1 ], [ 0.000000e+00, %86 ], [ %97, %.lr.ph.i ], [ %49, %_ZN11colvarvalueD2Ev.exit ]
  ret double %.0
}